; Function Attrs: nounwind uwtable
define internal range(i32 -1, 1) i32 @H5P__dxfr_dset_io_hyp_sel_close(ptr nocapture readnone %0, i64 %1, ptr nocapture noundef readonly %2) #0 {
  %4 = load ptr, ptr %2, align 8
  %.not = icmp eq ptr %4, null
  br i1 %.not, label %12, label %5

5:                                                ; preds = %3
  %6 = tail call i32 @H5S_close(ptr noundef nonnull %4) #8
  %7 = icmp slt i32 %6, 0
  br i1 %7, label %8, label %12

8:                                                ; preds = %5
  %9 = load i64, ptr @H5E_PLIST_g, align 8
  %10 = load i64, ptr @H5E_CANTCLOSEOBJ_g, align 8
  %11 = tail call i32 (ptr, ptr, i32, i64, i64, ptr, ...) @H5E_printf_stack(ptr noundef nonnull @.str.1, ptr noundef nonnull @__func__.H5P__dxfr_dset_io_hyp_sel_close, i32 noundef 2145, i64 noundef %9, i64 noundef %10, ptr noundef nonnull @.str.74) #8
  br label %12

12:                                               ; preds = %3, %5, %8
  %.0 = phi i32 [ -1, %8 ], [ 0, %5 ], [ 0, %3 ]
  ret i32 %.0
}